target datalayout = "e-m:e-p270:32:32-p271:32:32-p272:64:64-i64:64-i128:128-f80:128-n8:16:32:64-S128"
target triple = "x86_64-pc-linux-gnu"

%struct.stbi_io_callbacks = type { ptr, ptr, ptr }
%struct.stbi__context = type { i32, i32, i32, i32, %struct.stbi_io_callbacks, ptr, i32, i32, [128 x i8], i32, ptr, ptr, ptr, ptr }

; Function Attrs: mustprogress nounwind uwtable
define internal void @_ZL15stbi__start_memP13stbi__contextPKhi(ptr noundef %0, ptr noundef %1, i32 noundef %2) #0 {
  %4 = alloca ptr, align 8
  %5 = alloca ptr, align 8
  %6 = alloca i32, align 4
  store ptr %0, ptr %4, align 8, !tbaa !9
  store ptr %1, ptr %5, align 8, !tbaa !4
  store i32 %2, ptr %6, align 4, !tbaa !10
  %7 = load ptr, ptr %4, align 8, !tbaa !9
  %8 = getelementptr inbounds nuw %struct.stbi__context, ptr %7, i32 0, i32 4
  %9 = getelementptr inbounds nuw %struct.stbi_io_callbacks, ptr %8, i32 0, i32 0
  store ptr null, ptr %9, align 8, !tbaa !24
  %10 = load ptr, ptr %4, align 8, !tbaa !9
  %11 = getelementptr inbounds nuw %struct.stbi__context, ptr %10, i32 0, i32 6
  store i32 0, ptr %11, align 8, !tbaa !25
  %12 = load ptr, ptr %4, align 8, !tbaa !9
  %13 = getelementptr inbounds nuw %struct.stbi__context, ptr %12, i32 0, i32 9
  store i32 0, ptr %13, align 8, !tbaa !26
  %14 = load ptr, ptr %5, align 8, !tbaa !4
  %15 = load ptr, ptr %4, align 8, !tbaa !9
  %16 = getelementptr inbounds nuw %struct.stbi__context, ptr %15, i32 0, i32 12
  store ptr %14, ptr %16, align 8, !tbaa !27
  %17 = load ptr, ptr %4, align 8, !tbaa !9
  %18 = getelementptr inbounds nuw %struct.stbi__context, ptr %17, i32 0, i32 10
  store ptr %14, ptr %18, align 8, !tbaa !19
  %19 = load ptr, ptr %5, align 8, !tbaa !4
  %20 = load i32, ptr %6, align 4, !tbaa !10
  %21 = sext i32 %20 to i64
  %22 = getelementptr inbounds i8, ptr %19, i64 %21
  %23 = load ptr, ptr %4, align 8, !tbaa !9
  %24 = getelementptr inbounds nuw %struct.stbi__context, ptr %23, i32 0, i32 13
  store ptr %22, ptr %24, align 8, !tbaa !28
  %25 = load ptr, ptr %4, align 8, !tbaa !9
  %26 = getelementptr inbounds nuw %struct.stbi__context, ptr %25, i32 0, i32 11
  store ptr %22, ptr %26, align 8, !tbaa !16
  ret void
}

; Function Attrs: mustprogress uwtable
define dso_local i32 @stbi_is_hdr_from_memory(ptr noundef %0, i32 noundef %1) #3 {
  %3 = alloca ptr, align 8
  %4 = alloca i32, align 4
  %5 = alloca %struct.stbi__context, align 8
  store ptr %0, ptr %3, align 8, !tbaa !4
  store i32 %1, ptr %4, align 4, !tbaa !10
  call void @llvm.lifetime.start.p0(i64 224, ptr %5) #22
  %6 = load ptr, ptr %3, align 8, !tbaa !4
  %7 = load i32, ptr %4, align 4, !tbaa !10
  call void @_ZL15stbi__start_memP13stbi__contextPKhi(ptr noundef %5, ptr noundef %6, i32 noundef %7)
  %8 = call noundef i32 @_ZL14stbi__hdr_testP13stbi__context(ptr noundef %5)
  call void @llvm.lifetime.end.p0(i64 224, ptr %5) #22
  ret i32 %8
}