; Function Attrs: mustprogress uwtable
define dso_local noundef range(i32 0, 2) i32 @stbi_is_hdr_from_memory(ptr noundef %0, i32 noundef %1) local_unnamed_addr #5 {
  %3 = alloca %struct.stbi__context, align 8
  call void @llvm.lifetime.start.p0(i64 224, ptr nonnull %3) #40
  %4 = getelementptr inbounds nuw i8, ptr %3, i64 16
  store ptr null, ptr %4, align 8, !tbaa !21
  %5 = getelementptr inbounds nuw i8, ptr %3, i64 48
  store i32 0, ptr %5, align 8, !tbaa !17
  %6 = getelementptr inbounds nuw i8, ptr %3, i64 184
  store i32 0, ptr %6, align 8, !tbaa !18
  %7 = getelementptr inbounds nuw i8, ptr %3, i64 208
  store ptr %0, ptr %7, align 8, !tbaa !19
  %8 = getelementptr inbounds nuw i8, ptr %3, i64 192
  store ptr %0, ptr %8, align 8, !tbaa !20
  %9 = sext i32 %1 to i64
  %10 = getelementptr inbounds i8, ptr %0, i64 %9
  %11 = getelementptr inbounds nuw i8, ptr %3, i64 216
  store ptr %10, ptr %11, align 8, !tbaa !24
  %12 = getelementptr inbounds nuw i8, ptr %3, i64 200
  store ptr %10, ptr %12, align 8, !tbaa !23
  %13 = call fastcc noundef i32 @_ZL14stbi__hdr_testP13stbi__context(ptr noundef %3)
  call void @llvm.lifetime.end.p0(i64 224, ptr nonnull %3) #40
  ret i32 %13
}